(dp0
S'parentFilename'
p1
NsS'time'
p2
NsS'filename'
p3
S'intercept0.pickle'
p4
sS'seed'
p5
NsS'fuzzer'
p6
NsS'networkData'
p7
(lp8
(dp9
S'timeouts'
p10
I0
sS'data'
p11
S'AAAA'
p12
sS'from'
p13
S'cli'
p14
sS'latency'
p15
NsS'index'
p16
I0
sa(dp17
g10
I0
sg11
S'ok'
p18
sg13
S'srv'
p19
sg15
Nsg16
I1
sa(dp20
g10
I0
sg11
S'BBBB'
p21
sg13
g14
sg15
Nsg16
I2
sa(dp22
g10
I0
sg11
S'ok'
p23
sg13
g19
sg15
Nsg16
I3
sa(dp24
g10
I0
sg11
S'CCCC'
p25
sg13
g14
sg15
Nsg16
I4
sa(dp26
g10
I0
sg11
S'ok'
p27
sg13
g19
sg15
Nsg16
I5
sas.